target datalayout = "e-m:e-p270:32:32-p271:32:32-p272:64:64-i64:64-i128:128-f80:128-n8:16:32:64-S128"
target triple = "x86_64-pc-linux-gnu"

%struct.archive_write = type { %struct.archive, i32, i64, i64, ptr, i64, ptr, ptr, ptr, ptr, ptr, i32, i32, ptr, ptr, ptr, ptr, ptr, ptr, ptr, ptr, ptr, ptr, ptr, ptr, ptr, ptr }
%struct.archive = type { i32, i32, ptr, i32, ptr, i32, i32, ptr, %struct.archive_string, ptr, i32, i32, ptr, ptr, i64, i64, i64, i8, i64 }
%struct.archive_string = type { ptr, i64, i64 }
%struct.mtree_writer = type { ptr, ptr, ptr, %struct.archive_string, %struct.mtree_chain, %struct.archive_string, %struct.archive_string, i32, i64, %struct.anon, %struct.att_counter_set, i32, i32, i32, i32, i64, ptr, ptr, ptr, ptr, ptr, ptr, i32, i32, i32, i32 }
%struct.mtree_chain = type { ptr, ptr }
%struct.anon = type { i32, i32, i32, i64, i64, i32, i64, i64 }
%struct.att_counter_set = type { ptr, ptr, ptr, ptr }
%struct.mtree_entry = type { %struct.archive_rb_node, ptr, ptr, ptr, ptr, %struct.archive_string, %struct.archive_string, %struct.archive_string, %struct.archive_string, %struct.archive_string, %struct.archive_string, %struct.archive_string, i32, i32, i32, i64, i64, i64, i64, i64, i64, i64, i64, i64, i64, i64, i64 }
%struct.archive_rb_node = type { [2 x ptr], i64 }
%struct.attr_counter = type { ptr, ptr, ptr, i32 }

; Function Attrs: nounwind uwtable
define internal void @attr_counter_free(ptr noundef %0) #0 {
  %2 = alloca ptr, align 8
  %3 = alloca ptr, align 8
  %4 = alloca ptr, align 8
  %5 = alloca i32, align 4
  store ptr %0, ptr %2, align 8, !tbaa !77
  call void @llvm.lifetime.start.p0(i64 8, ptr %3) #9
  call void @llvm.lifetime.start.p0(i64 8, ptr %4) #9
  %6 = load ptr, ptr %2, align 8, !tbaa !77
  %7 = load ptr, ptr %6, align 8, !tbaa !79
  %8 = icmp eq ptr %7, null
  br i1 %8, label %9, label %10

9:                                                ; preds = %1
  store i32 1, ptr %5, align 4
  br label %24

10:                                               ; preds = %1
  %11 = load ptr, ptr %2, align 8, !tbaa !77
  %12 = load ptr, ptr %11, align 8, !tbaa !79
  store ptr %12, ptr %3, align 8, !tbaa !79
  br label %13

13:                                               ; preds = %16, %10
  %14 = load ptr, ptr %3, align 8, !tbaa !79
  %15 = icmp ne ptr %14, null
  br i1 %15, label %16, label %22

16:                                               ; preds = %13
  %17 = load ptr, ptr %3, align 8, !tbaa !79
  %18 = getelementptr inbounds nuw %struct.attr_counter, ptr %17, i32 0, i32 1
  %19 = load ptr, ptr %18, align 8, !tbaa !80
  store ptr %19, ptr %4, align 8, !tbaa !79
  %20 = load ptr, ptr %3, align 8, !tbaa !79
  call void @free(ptr noundef %20) #9
  %21 = load ptr, ptr %4, align 8, !tbaa !79
  store ptr %21, ptr %3, align 8, !tbaa !79
  br label %13, !llvm.loop !82

22:                                               ; preds = %13
  %23 = load ptr, ptr %2, align 8, !tbaa !77
  store ptr null, ptr %23, align 8, !tbaa !79
  store i32 0, ptr %5, align 4
  br label %24

24:                                               ; preds = %22, %9
  call void @llvm.lifetime.end.p0(i64 8, ptr %4) #9
  call void @llvm.lifetime.end.p0(i64 8, ptr %3) #9
  %25 = load i32, ptr %5, align 4
  switch i32 %25, label %27 [
    i32 0, label %26
    i32 1, label %26
  ]

26:                                               ; preds = %24, %24
  ret void

27:                                               ; preds = %24
  unreachable
}

; Function Attrs: nounwind uwtable
define internal void @mtree_entry_free(ptr noundef %0) #0 {
  %2 = alloca ptr, align 8
  store ptr %0, ptr %2, align 8, !tbaa !61
  %3 = load ptr, ptr %2, align 8, !tbaa !61
  %4 = getelementptr inbounds nuw %struct.mtree_entry, ptr %3, i32 0, i32 5
  call void @archive_string_free(ptr noundef %4)
  %5 = load ptr, ptr %2, align 8, !tbaa !61
  %6 = getelementptr inbounds nuw %struct.mtree_entry, ptr %5, i32 0, i32 6
  call void @archive_string_free(ptr noundef %6)
  %7 = load ptr, ptr %2, align 8, !tbaa !61
  %8 = getelementptr inbounds nuw %struct.mtree_entry, ptr %7, i32 0, i32 7
  call void @archive_string_free(ptr noundef %8)
  %9 = load ptr, ptr %2, align 8, !tbaa !61
  %10 = getelementptr inbounds nuw %struct.mtree_entry, ptr %9, i32 0, i32 8
  call void @archive_string_free(ptr noundef %10)
  %11 = load ptr, ptr %2, align 8, !tbaa !61
  %12 = getelementptr inbounds nuw %struct.mtree_entry, ptr %11, i32 0, i32 9
  call void @archive_string_free(ptr noundef %12)
  %13 = load ptr, ptr %2, align 8, !tbaa !61
  %14 = getelementptr inbounds nuw %struct.mtree_entry, ptr %13, i32 0, i32 10
  call void @archive_string_free(ptr noundef %14)
  %15 = load ptr, ptr %2, align 8, !tbaa !61
  %16 = getelementptr inbounds nuw %struct.mtree_entry, ptr %15, i32 0, i32 11
  call void @archive_string_free(ptr noundef %16)
  %17 = load ptr, ptr %2, align 8, !tbaa !61
  %18 = getelementptr inbounds nuw %struct.mtree_entry, ptr %17, i32 0, i32 3
  %19 = load ptr, ptr %18, align 8, !tbaa !76
  call void @free(ptr noundef %19) #9
  %20 = load ptr, ptr %2, align 8, !tbaa !61
  %21 = getelementptr inbounds nuw %struct.mtree_entry, ptr %20, i32 0, i32 4
  %22 = load ptr, ptr %21, align 8, !tbaa !62
  call void @free(ptr noundef %22) #9
  %23 = load ptr, ptr %2, align 8, !tbaa !61
  call void @free(ptr noundef %23) #9
  ret void
}

; Function Attrs: nounwind uwtable
define internal void @attr_counter_set_free(ptr noundef %0) #0 {
  %2 = alloca ptr, align 8
  %3 = alloca ptr, align 8
  store ptr %0, ptr %2, align 8, !tbaa !23
  call void @llvm.lifetime.start.p0(i64 8, ptr %3) #9
  %4 = load ptr, ptr %2, align 8, !tbaa !23
  %5 = getelementptr inbounds nuw %struct.mtree_writer, ptr %4, i32 0, i32 10
  store ptr %5, ptr %3, align 8, !tbaa !74
  %6 = load ptr, ptr %3, align 8, !tbaa !74
  %7 = getelementptr inbounds nuw %struct.att_counter_set, ptr %6, i32 0, i32 0
  call void @attr_counter_free(ptr noundef %7)
  %8 = load ptr, ptr %3, align 8, !tbaa !74
  %9 = getelementptr inbounds nuw %struct.att_counter_set, ptr %8, i32 0, i32 1
  call void @attr_counter_free(ptr noundef %9)
  %10 = load ptr, ptr %3, align 8, !tbaa !74
  %11 = getelementptr inbounds nuw %struct.att_counter_set, ptr %10, i32 0, i32 2
  call void @attr_counter_free(ptr noundef %11)
  %12 = load ptr, ptr %3, align 8, !tbaa !74
  %13 = getelementptr inbounds nuw %struct.att_counter_set, ptr %12, i32 0, i32 3
  call void @attr_counter_free(ptr noundef %13)
  call void @llvm.lifetime.end.p0(i64 8, ptr %3) #9
  ret void
}

; Function Attrs: nounwind uwtable
define internal void @mtree_entry_register_free(ptr noundef %0) #0 {
  %2 = alloca ptr, align 8
  %3 = alloca ptr, align 8
  %4 = alloca ptr, align 8
  store ptr %0, ptr %2, align 8, !tbaa !23
  call void @llvm.lifetime.start.p0(i64 8, ptr %3) #9
  call void @llvm.lifetime.start.p0(i64 8, ptr %4) #9
  %5 = load ptr, ptr %2, align 8, !tbaa !23
  %6 = getelementptr inbounds nuw %struct.mtree_writer, ptr %5, i32 0, i32 4
  %7 = getelementptr inbounds nuw %struct.mtree_chain, ptr %6, i32 0, i32 0
  %8 = load ptr, ptr %7, align 8, !tbaa !55
  store ptr %8, ptr %3, align 8, !tbaa !61
  br label %9

9:                                                ; preds = %12, %1
  %10 = load ptr, ptr %3, align 8, !tbaa !61
  %11 = icmp ne ptr %10, null
  br i1 %11, label %12, label %18

12:                                               ; preds = %9
  %13 = load ptr, ptr %3, align 8, !tbaa !61
  %14 = getelementptr inbounds nuw %struct.mtree_entry, ptr %13, i32 0, i32 1
  %15 = load ptr, ptr %14, align 8, !tbaa !71
  store ptr %15, ptr %4, align 8, !tbaa !61
  %16 = load ptr, ptr %3, align 8, !tbaa !61
  call void @mtree_entry_free(ptr noundef %16)
  %17 = load ptr, ptr %4, align 8, !tbaa !61
  store ptr %17, ptr %3, align 8, !tbaa !61
  br label %9, !llvm.loop !72

18:                                               ; preds = %9
  call void @llvm.lifetime.end.p0(i64 8, ptr %4) #9
  call void @llvm.lifetime.end.p0(i64 8, ptr %3) #9
  ret void
}

; Function Attrs: nounwind uwtable
define internal i32 @archive_write_mtree_free(ptr noundef %0) #0 {
  %2 = alloca i32, align 4
  %3 = alloca ptr, align 8
  %4 = alloca ptr, align 8
  %5 = alloca i32, align 4
  store ptr %0, ptr %3, align 8, !tbaa !11
  call void @llvm.lifetime.start.p0(i64 8, ptr %4) #9
  %6 = load ptr, ptr %3, align 8, !tbaa !11
  %7 = getelementptr inbounds nuw %struct.archive_write, ptr %6, i32 0, i32 15
  %8 = load ptr, ptr %7, align 8, !tbaa !44
  store ptr %8, ptr %4, align 8, !tbaa !23
  %9 = load ptr, ptr %4, align 8, !tbaa !23
  %10 = icmp eq ptr %9, null
  br i1 %10, label %11, label %12

11:                                               ; preds = %1
  store i32 0, ptr %2, align 4
  store i32 1, ptr %5, align 4
  br label %24

12:                                               ; preds = %1
  %13 = load ptr, ptr %4, align 8, !tbaa !23
  call void @mtree_entry_register_free(ptr noundef %13)
  %14 = load ptr, ptr %4, align 8, !tbaa !23
  %15 = getelementptr inbounds nuw %struct.mtree_writer, ptr %14, i32 0, i32 3
  call void @archive_string_free(ptr noundef %15)
  %16 = load ptr, ptr %4, align 8, !tbaa !23
  %17 = getelementptr inbounds nuw %struct.mtree_writer, ptr %16, i32 0, i32 5
  call void @archive_string_free(ptr noundef %17)
  %18 = load ptr, ptr %4, align 8, !tbaa !23
  %19 = getelementptr inbounds nuw %struct.mtree_writer, ptr %18, i32 0, i32 6
  call void @archive_string_free(ptr noundef %19)
  %20 = load ptr, ptr %4, align 8, !tbaa !23
  call void @attr_counter_set_free(ptr noundef %20)
  %21 = load ptr, ptr %4, align 8, !tbaa !23
  call void @free(ptr noundef %21) #9
  %22 = load ptr, ptr %3, align 8, !tbaa !11
  %23 = getelementptr inbounds nuw %struct.archive_write, ptr %22, i32 0, i32 15
  store ptr null, ptr %23, align 8, !tbaa !44
  store i32 0, ptr %2, align 4
  store i32 1, ptr %5, align 4
  br label %24

24:                                               ; preds = %12, %11
  call void @llvm.lifetime.end.p0(i64 8, ptr %4) #9
  %25 = load i32, ptr %2, align 4
  ret i32 %25
}