; Function Attrs: nounwind uwtable
define internal noundef i32 @archive_write_mtree_free(ptr noundef captures(none) %0) #0 {
  %2 = getelementptr inbounds nuw i8, ptr %0, i64 248
  %3 = load ptr, ptr %2, align 8, !tbaa !28
  %4 = icmp eq ptr %3, null
  br i1 %4, label %46, label %5

5:                                                ; preds = %1
  %6 = getelementptr i8, ptr %3, i64 48
  %.val = load ptr, ptr %6, align 8, !tbaa !39
  %.not1.i = icmp eq ptr %.val, null
  br i1 %.not1.i, label %mtree_entry_register_free.exit, label %.lr.ph.i

.lr.ph.i:                                         ; preds = %5, %.lr.ph.i
  %.02.i = phi ptr [ %8, %.lr.ph.i ], [ %.val, %5 ]
  %7 = getelementptr inbounds nuw i8, ptr %.02.i, i64 24
  %8 = load ptr, ptr %7, align 8, !tbaa !40
  %9 = getelementptr inbounds nuw i8, ptr %.02.i, i64 56
  tail call void @archive_string_free(ptr noundef nonnull %9) #14
  %10 = getelementptr inbounds nuw i8, ptr %.02.i, i64 80
  tail call void @archive_string_free(ptr noundef nonnull %10) #14
  %11 = getelementptr inbounds nuw i8, ptr %.02.i, i64 104
  tail call void @archive_string_free(ptr noundef nonnull %11) #14
  %12 = getelementptr inbounds nuw i8, ptr %.02.i, i64 128
  tail call void @archive_string_free(ptr noundef nonnull %12) #14
  %13 = getelementptr inbounds nuw i8, ptr %.02.i, i64 152
  tail call void @archive_string_free(ptr noundef nonnull %13) #14
  %14 = getelementptr inbounds nuw i8, ptr %.02.i, i64 176
  tail call void @archive_string_free(ptr noundef nonnull %14) #14
  %15 = getelementptr inbounds nuw i8, ptr %.02.i, i64 200
  tail call void @archive_string_free(ptr noundef nonnull %15) #14
  %16 = getelementptr inbounds nuw i8, ptr %.02.i, i64 40
  %17 = load ptr, ptr %16, align 8, !tbaa !45
  tail call void @free(ptr noundef %17) #14
  %18 = getelementptr inbounds nuw i8, ptr %.02.i, i64 48
  %19 = load ptr, ptr %18, align 8, !tbaa !46
  tail call void @free(ptr noundef %19) #14
  tail call void @free(ptr noundef nonnull %.02.i) #14
  %.not.i = icmp eq ptr %8, null
  br i1 %.not.i, label %mtree_entry_register_free.exit, label %.lr.ph.i, !llvm.loop !47

mtree_entry_register_free.exit:                   ; preds = %.lr.ph.i, %5
  %20 = getelementptr inbounds nuw i8, ptr %3, i64 24
  tail call void @archive_string_free(ptr noundef nonnull %20) #14
  %21 = getelementptr inbounds nuw i8, ptr %3, i64 64
  tail call void @archive_string_free(ptr noundef nonnull %21) #14
  %22 = getelementptr inbounds nuw i8, ptr %3, i64 88
  tail call void @archive_string_free(ptr noundef nonnull %22) #14
  %23 = getelementptr inbounds nuw i8, ptr %3, i64 184
  %24 = load ptr, ptr %23, align 8, !tbaa !49
  %25 = icmp eq ptr %24, null
  br i1 %25, label %attr_counter_free.exit.i, label %.preheader.i.i

.preheader.i.i:                                   ; preds = %mtree_entry_register_free.exit, %.preheader.i.i
  %.08.i.i = phi ptr [ %27, %.preheader.i.i ], [ %24, %mtree_entry_register_free.exit ]
  %26 = getelementptr inbounds nuw i8, ptr %.08.i.i, i64 8
  %27 = load ptr, ptr %26, align 8, !tbaa !50
  tail call void @free(ptr noundef nonnull %.08.i.i) #14
  %.not.i.i = icmp eq ptr %27, null
  br i1 %.not.i.i, label %28, label %.preheader.i.i, !llvm.loop !52

28:                                               ; preds = %.preheader.i.i
  store ptr null, ptr %23, align 8, !tbaa !49
  br label %attr_counter_free.exit.i

attr_counter_free.exit.i:                         ; preds = %28, %mtree_entry_register_free.exit
  %29 = getelementptr inbounds nuw i8, ptr %3, i64 192
  %30 = load ptr, ptr %29, align 8, !tbaa !49
  %31 = icmp eq ptr %30, null
  br i1 %31, label %attr_counter_free.exit8.i, label %.preheader.i5.i

.preheader.i5.i:                                  ; preds = %attr_counter_free.exit.i, %.preheader.i5.i
  %.08.i6.i = phi ptr [ %33, %.preheader.i5.i ], [ %30, %attr_counter_free.exit.i ]
  %32 = getelementptr inbounds nuw i8, ptr %.08.i6.i, i64 8
  %33 = load ptr, ptr %32, align 8, !tbaa !50
  tail call void @free(ptr noundef nonnull %.08.i6.i) #14
  %.not.i7.i = icmp eq ptr %33, null
  br i1 %.not.i7.i, label %34, label %.preheader.i5.i, !llvm.loop !52

34:                                               ; preds = %.preheader.i5.i
  store ptr null, ptr %29, align 8, !tbaa !49
  br label %attr_counter_free.exit8.i

attr_counter_free.exit8.i:                        ; preds = %34, %attr_counter_free.exit.i
  %35 = getelementptr inbounds nuw i8, ptr %3, i64 200
  %36 = load ptr, ptr %35, align 8, !tbaa !49
  %37 = icmp eq ptr %36, null
  br i1 %37, label %attr_counter_free.exit12.i, label %.preheader.i9.i

.preheader.i9.i:                                  ; preds = %attr_counter_free.exit8.i, %.preheader.i9.i
  %.08.i10.i = phi ptr [ %39, %.preheader.i9.i ], [ %36, %attr_counter_free.exit8.i ]
  %38 = getelementptr inbounds nuw i8, ptr %.08.i10.i, i64 8
  %39 = load ptr, ptr %38, align 8, !tbaa !50
  tail call void @free(ptr noundef nonnull %.08.i10.i) #14
  %.not.i11.i = icmp eq ptr %39, null
  br i1 %.not.i11.i, label %40, label %.preheader.i9.i, !llvm.loop !52

40:                                               ; preds = %.preheader.i9.i
  store ptr null, ptr %35, align 8, !tbaa !49
  br label %attr_counter_free.exit12.i

attr_counter_free.exit12.i:                       ; preds = %40, %attr_counter_free.exit8.i
  %41 = getelementptr inbounds nuw i8, ptr %3, i64 208
  %42 = load ptr, ptr %41, align 8, !tbaa !49
  %43 = icmp eq ptr %42, null
  br i1 %43, label %attr_counter_set_free.exit, label %.preheader.i13.i

.preheader.i13.i:                                 ; preds = %attr_counter_free.exit12.i, %.preheader.i13.i
  %.08.i14.i = phi ptr [ %45, %.preheader.i13.i ], [ %42, %attr_counter_free.exit12.i ]
  %44 = getelementptr inbounds nuw i8, ptr %.08.i14.i, i64 8
  %45 = load ptr, ptr %44, align 8, !tbaa !50
  tail call void @free(ptr noundef nonnull %.08.i14.i) #14
  %.not.i15.i = icmp eq ptr %45, null
  br i1 %.not.i15.i, label %attr_counter_set_free.exit, label %.preheader.i13.i, !llvm.loop !52

attr_counter_set_free.exit:                       ; preds = %.preheader.i13.i, %attr_counter_free.exit12.i
  tail call void @free(ptr noundef nonnull %3) #14
  store ptr null, ptr %2, align 8, !tbaa !28
  br label %46

46:                                               ; preds = %1, %attr_counter_set_free.exit
  ret i32 0
}